target datalayout = "e-m:e-p270:32:32-p271:32:32-p272:64:64-i64:64-i128:128-f80:128-n8:16:32:64-S128"
target triple = "x86_64-pc-linux-gnu"

%struct.H5O_layout_t = type { i32, i32, ptr, %union.anon, %struct.H5O_storage_t }
%union.anon = type { %struct.H5O_layout_chunk_t }
%struct.H5O_layout_chunk_t = type { i32, i8, i32, [33 x i32], i32, i32, i64, i64, [33 x i64], [33 x i64], [33 x i64], [33 x i64], %union.anon.0 }
%union.anon.0 = type { %struct.H5O_layout_chunk_earray_t }
%struct.H5O_layout_chunk_earray_t = type { %struct.anon.1, i32, [33 x i32], [33 x i64], [33 x i64] }
%struct.anon.1 = type { i8, i8, i8, i8, i8 }
%struct.H5O_storage_t = type { i32, %union.anon.3 }
%union.anon.3 = type { %struct.H5O_storage_virtual_t }
%struct.H5O_storage_virtual_t = type { %struct.H5HG_t, i64, ptr, i64, [32 x i64], i32, i64, i64, i64, i8 }
%struct.H5HG_t = type { i64, i64 }
%struct.H5O_storage_virtual_ent_t = type { %struct.H5O_storage_virtual_srcdset_t, ptr, ptr, ptr, ptr, i64, i64, i64, i64, ptr, i64, i64, ptr, i64, i64, i32, i32, i64, i64, i64, i64, i32, i32 }
%struct.H5O_storage_virtual_srcdset_t = type { ptr, ptr, ptr, ptr, ptr, ptr, i8, ptr }

@H5D_init_g = external global i8, align 1
@H5_libterm_g = external global i8, align 1
@.str.1 = private unnamed_addr constant [104 x i8] c"generated/home/dtcxzyw/WorkSpace/Projects/compilers/llvm-opt-benchmark/bench/hdf5/hdf5/src/H5Dvirtual.c\00", align 1
@H5E_FUNC_g = external global i64, align 8
@H5E_CANTINIT_g = external global i64, align 8
@.str.2 = private unnamed_addr constant [32 x i8] c"interface initialization failed\00", align 1
@H5E_DATASET_g = external global i64, align 8
@H5E_CANTGET_g = external global i64, align 8
@__func__.H5D_virtual_update_min_dims = private unnamed_addr constant [28 x i8] c"H5D_virtual_update_min_dims\00", align 1
@.str.14 = private unnamed_addr constant [29 x i8] c"unable to get selection type\00", align 1
@.str.15 = private unnamed_addr constant [35 x i8] c"unable to get number of dimensions\00", align 1
@.str.16 = private unnamed_addr constant [31 x i8] c"unable to get selection bounds\00", align 1

; Function Attrs: nounwind uwtable
define i32 @H5D_virtual_update_min_dims(ptr noundef %0, i64 noundef %1) #0 {
  %3 = alloca ptr, align 8
  %4 = alloca i64, align 8
  %5 = alloca ptr, align 8
  %6 = alloca ptr, align 8
  %7 = alloca i32, align 4
  %8 = alloca i32, align 4
  %9 = alloca [32 x i64], align 16
  %10 = alloca [32 x i64], align 16
  %11 = alloca i32, align 4
  %12 = alloca i32, align 4
  %13 = alloca i8, align 1
  store ptr %0, ptr %3, align 8, !tbaa !128
  store i64 %1, ptr %4, align 8, !tbaa !10
  call void @llvm.lifetime.start.p0(i64 8, ptr %5) #10
  %14 = load ptr, ptr %3, align 8, !tbaa !128
  %15 = getelementptr inbounds nuw %struct.H5O_layout_t, ptr %14, i32 0, i32 4
  %16 = getelementptr inbounds nuw %struct.H5O_storage_t, ptr %15, i32 0, i32 1
  store ptr %16, ptr %5, align 8, !tbaa !24
  call void @llvm.lifetime.start.p0(i64 8, ptr %6) #10
  %17 = load ptr, ptr %5, align 8, !tbaa !24
  %18 = getelementptr inbounds nuw %struct.H5O_storage_virtual_t, ptr %17, i32 0, i32 2
  %19 = load ptr, ptr %18, align 8, !tbaa !30
  %20 = load i64, ptr %4, align 8, !tbaa !10
  %21 = getelementptr inbounds nuw %struct.H5O_storage_virtual_ent_t, ptr %19, i64 %20
  store ptr %21, ptr %6, align 8, !tbaa !127
  call void @llvm.lifetime.start.p0(i64 4, ptr %7) #10
  call void @llvm.lifetime.start.p0(i64 4, ptr %8) #10
  call void @llvm.lifetime.start.p0(i64 256, ptr %9) #10
  call void @llvm.lifetime.start.p0(i64 256, ptr %10) #10
  call void @llvm.lifetime.start.p0(i64 4, ptr %11) #10
  call void @llvm.lifetime.start.p0(i64 4, ptr %12) #10
  store i32 0, ptr %12, align 4, !tbaa !12
  call void @llvm.lifetime.start.p0(i64 1, ptr %13) #10
  store i8 0, ptr %13, align 1, !tbaa !14
  %22 = load i8, ptr @H5D_init_g, align 1, !tbaa !14, !range !16, !noundef !17
  %23 = trunc i8 %22 to i1
  br i1 %23, label %28, label %24

24:                                               ; preds = %2
  %25 = load i8, ptr @H5_libterm_g, align 1, !tbaa !14, !range !16, !noundef !17
  %26 = trunc i8 %25 to i1
  %27 = xor i1 %26, true
  br label %28

28:                                               ; preds = %24, %2
  %29 = phi i1 [ false, %2 ], [ %27, %24 ]
  %30 = xor i1 %29, true
  %31 = xor i1 %30, true
  %32 = zext i1 %31 to i32
  %33 = sext i32 %32 to i64
  %34 = call i64 @llvm.expect.i64(i64 %33, i64 0)
  %35 = icmp ne i64 %34, 0
  br i1 %35, label %36, label %59

36:                                               ; preds = %28
  store i8 1, ptr @H5D_init_g, align 1, !tbaa !14
  %37 = call i32 @H5D__init_package()
  %38 = icmp slt i32 %37, 0
  br i1 %38, label %39, label %58

39:                                               ; preds = %36
  store i8 0, ptr @H5D_init_g, align 1, !tbaa !14
  br label %40

40:                                               ; preds = %39
  br label %41

41:                                               ; preds = %40
  br label %42

42:                                               ; preds = %41
  %43 = load i64, ptr @H5E_FUNC_g, align 8, !tbaa !10
  %44 = load i64, ptr @H5E_CANTINIT_g, align 8, !tbaa !10
  %45 = call i32 (ptr, ptr, i32, i64, i64, ptr, ...) @H5E_printf_stack(ptr noundef @.str.1, ptr noundef @__func__.H5D_virtual_update_min_dims, i32 noundef 309, i64 noundef %43, i64 noundef %44, ptr noundef @.str.2)
  br label %46

46:                                               ; preds = %42
  br label %47

47:                                               ; preds = %46
  store i8 1, ptr %13, align 1, !tbaa !14
  %48 = load i8, ptr %13, align 1, !tbaa !14, !range !16, !noundef !17
  %49 = trunc i8 %48 to i1
  %50 = zext i1 %49 to i8
  store i8 %50, ptr %13, align 1, !tbaa !14
  br label %51

51:                                               ; preds = %47
  br label %52

52:                                               ; preds = %51
  br label %53

53:                                               ; preds = %52
  store i32 -1, ptr %12, align 4, !tbaa !12
  br label %203

54:                                               ; No predecessors!
  br label %55

55:                                               ; preds = %54
  br label %56

56:                                               ; preds = %55
  br label %57

57:                                               ; preds = %56
  br label %58

58:                                               ; preds = %57, %36
  br label %59

59:                                               ; preds = %58, %28
  %60 = load i8, ptr @H5D_init_g, align 1, !tbaa !14, !range !16, !noundef !17
  %61 = trunc i8 %60 to i1
  br i1 %61, label %66, label %62

62:                                               ; preds = %59
  %63 = load i8, ptr @H5_libterm_g, align 1, !tbaa !14, !range !16, !noundef !17
  %64 = trunc i8 %63 to i1
  %65 = xor i1 %64, true
  br label %66

66:                                               ; preds = %62, %59
  %67 = phi i1 [ true, %59 ], [ %65, %62 ]
  %68 = xor i1 %67, true
  %69 = xor i1 %68, true
  %70 = zext i1 %69 to i32
  %71 = sext i32 %70 to i64
  %72 = call i64 @llvm.expect.i64(i64 %71, i64 1)
  %73 = icmp ne i64 %72, 0
  br i1 %73, label %74, label %204

74:                                               ; preds = %66
  %75 = load ptr, ptr %6, align 8, !tbaa !127
  %76 = getelementptr inbounds nuw %struct.H5O_storage_virtual_ent_t, ptr %75, i32 0, i32 0
  %77 = getelementptr inbounds nuw %struct.H5O_storage_virtual_srcdset_t, ptr %76, i32 0, i32 0
  %78 = load ptr, ptr %77, align 8, !tbaa !31
  %79 = call i32 @H5S_get_select_type(ptr noundef %78)
  store i32 %79, ptr %7, align 4, !tbaa !12
  %80 = icmp eq i32 -1, %79
  br i1 %80, label %81, label %100

81:                                               ; preds = %74
  br label %82

82:                                               ; preds = %81
  br label %83

83:                                               ; preds = %82
  br label %84

84:                                               ; preds = %83
  %85 = load i64, ptr @H5E_DATASET_g, align 8, !tbaa !10
  %86 = load i64, ptr @H5E_CANTGET_g, align 8, !tbaa !10
  %87 = call i32 (ptr, ptr, i32, i64, i64, ptr, ...) @H5E_printf_stack(ptr noundef @.str.1, ptr noundef @__func__.H5D_virtual_update_min_dims, i32 noundef 317, i64 noundef %85, i64 noundef %86, ptr noundef @.str.14)
  br label %88

88:                                               ; preds = %84
  br label %89

89:                                               ; preds = %88
  store i8 1, ptr %13, align 1, !tbaa !14
  %90 = load i8, ptr %13, align 1, !tbaa !14, !range !16, !noundef !17
  %91 = trunc i8 %90 to i1
  %92 = zext i1 %91 to i8
  store i8 %92, ptr %13, align 1, !tbaa !14
  br label %93

93:                                               ; preds = %89
  br label %94

94:                                               ; preds = %93
  br label %95

95:                                               ; preds = %94
  store i32 -1, ptr %12, align 4, !tbaa !12
  br label %203

96:                                               ; No predecessors!
  br label %97

97:                                               ; preds = %96
  br label %98

98:                                               ; preds = %97
  br label %99

99:                                               ; preds = %98
  br label %100

100:                                              ; preds = %99, %74
  %101 = load i32, ptr %7, align 4, !tbaa !12
  %102 = icmp eq i32 %101, 3
  br i1 %102, label %106, label %103

103:                                              ; preds = %100
  %104 = load i32, ptr %7, align 4, !tbaa !12
  %105 = icmp eq i32 %104, 0
  br i1 %105, label %106, label %110

106:                                              ; preds = %103, %100
  br label %107

107:                                              ; preds = %106
  store i32 0, ptr %12, align 4, !tbaa !12
  br label %203

108:                                              ; No predecessors!
  br label %109

109:                                              ; preds = %108
  br label %110

110:                                              ; preds = %109, %103
  %111 = load ptr, ptr %6, align 8, !tbaa !127
  %112 = getelementptr inbounds nuw %struct.H5O_storage_virtual_ent_t, ptr %111, i32 0, i32 0
  %113 = getelementptr inbounds nuw %struct.H5O_storage_virtual_srcdset_t, ptr %112, i32 0, i32 0
  %114 = load ptr, ptr %113, align 8, !tbaa !31
  %115 = call i32 @H5S_get_simple_extent_ndims(ptr noundef %114)
  store i32 %115, ptr %8, align 4, !tbaa !12
  %116 = icmp slt i32 %115, 0
  br i1 %116, label %117, label %136

117:                                              ; preds = %110
  br label %118

118:                                              ; preds = %117
  br label %119

119:                                              ; preds = %118
  br label %120

120:                                              ; preds = %119
  %121 = load i64, ptr @H5E_DATASET_g, align 8, !tbaa !10
  %122 = load i64, ptr @H5E_CANTGET_g, align 8, !tbaa !10
  %123 = call i32 (ptr, ptr, i32, i64, i64, ptr, ...) @H5E_printf_stack(ptr noundef @.str.1, ptr noundef @__func__.H5D_virtual_update_min_dims, i32 noundef 325, i64 noundef %121, i64 noundef %122, ptr noundef @.str.15)
  br label %124

124:                                              ; preds = %120
  br label %125

125:                                              ; preds = %124
  store i8 1, ptr %13, align 1, !tbaa !14
  %126 = load i8, ptr %13, align 1, !tbaa !14, !range !16, !noundef !17
  %127 = trunc i8 %126 to i1
  %128 = zext i1 %127 to i8
  store i8 %128, ptr %13, align 1, !tbaa !14
  br label %129

129:                                              ; preds = %125
  br label %130

130:                                              ; preds = %129
  br label %131

131:                                              ; preds = %130
  store i32 -1, ptr %12, align 4, !tbaa !12
  br label %203

132:                                              ; No predecessors!
  br label %133

133:                                              ; preds = %132
  br label %134

134:                                              ; preds = %133
  br label %135

135:                                              ; preds = %134
  br label %136

136:                                              ; preds = %135, %110
  %137 = load ptr, ptr %6, align 8, !tbaa !127
  %138 = getelementptr inbounds nuw %struct.H5O_storage_virtual_ent_t, ptr %137, i32 0, i32 0
  %139 = getelementptr inbounds nuw %struct.H5O_storage_virtual_srcdset_t, ptr %138, i32 0, i32 0
  %140 = load ptr, ptr %139, align 8, !tbaa !31
  %141 = getelementptr inbounds [32 x i64], ptr %9, i64 0, i64 0
  %142 = getelementptr inbounds [32 x i64], ptr %10, i64 0, i64 0
  %143 = call i32 @H5S_get_select_bounds(ptr noundef %140, ptr noundef %141, ptr noundef %142)
  %144 = icmp slt i32 %143, 0
  br i1 %144, label %145, label %164

145:                                              ; preds = %136
  br label %146

146:                                              ; preds = %145
  br label %147

147:                                              ; preds = %146
  br label %148

148:                                              ; preds = %147
  %149 = load i64, ptr @H5E_DATASET_g, align 8, !tbaa !10
  %150 = load i64, ptr @H5E_CANTGET_g, align 8, !tbaa !10
  %151 = call i32 (ptr, ptr, i32, i64, i64, ptr, ...) @H5E_printf_stack(ptr noundef @.str.1, ptr noundef @__func__.H5D_virtual_update_min_dims, i32 noundef 329, i64 noundef %149, i64 noundef %150, ptr noundef @.str.16)
  br label %152

152:                                              ; preds = %148
  br label %153

153:                                              ; preds = %152
  store i8 1, ptr %13, align 1, !tbaa !14
  %154 = load i8, ptr %13, align 1, !tbaa !14, !range !16, !noundef !17
  %155 = trunc i8 %154 to i1
  %156 = zext i1 %155 to i8
  store i8 %156, ptr %13, align 1, !tbaa !14
  br label %157

157:                                              ; preds = %153
  br label %158

158:                                              ; preds = %157
  br label %159

159:                                              ; preds = %158
  store i32 -1, ptr %12, align 4, !tbaa !12
  br label %203

160:                                              ; No predecessors!
  br label %161

161:                                              ; preds = %160
  br label %162

162:                                              ; preds = %161
  br label %163

163:                                              ; preds = %162
  br label %164

164:                                              ; preds = %163, %136
  store i32 0, ptr %11, align 4, !tbaa !12
  br label %165

165:                                              ; preds = %199, %164
  %166 = load i32, ptr %11, align 4, !tbaa !12
  %167 = load i32, ptr %8, align 4, !tbaa !12
  %168 = icmp slt i32 %166, %167
  br i1 %168, label %169, label %202

169:                                              ; preds = %165
  %170 = load i32, ptr %11, align 4, !tbaa !12
  %171 = load ptr, ptr %6, align 8, !tbaa !127
  %172 = getelementptr inbounds nuw %struct.H5O_storage_virtual_ent_t, ptr %171, i32 0, i32 16
  %173 = load i32, ptr %172, align 4, !tbaa !129
  %174 = icmp ne i32 %170, %173
  br i1 %174, label %175, label %198

175:                                              ; preds = %169
  %176 = load i32, ptr %11, align 4, !tbaa !12
  %177 = sext i32 %176 to i64
  %178 = getelementptr inbounds [32 x i64], ptr %10, i64 0, i64 %177
  %179 = load i64, ptr %178, align 8, !tbaa !10
  %180 = load ptr, ptr %5, align 8, !tbaa !24
  %181 = getelementptr inbounds nuw %struct.H5O_storage_virtual_t, ptr %180, i32 0, i32 4
  %182 = load i32, ptr %11, align 4, !tbaa !12
  %183 = sext i32 %182 to i64
  %184 = getelementptr inbounds [32 x i64], ptr %181, i64 0, i64 %183
  %185 = load i64, ptr %184, align 8, !tbaa !10
  %186 = icmp uge i64 %179, %185
  br i1 %186, label %187, label %198

187:                                              ; preds = %175
  %188 = load i32, ptr %11, align 4, !tbaa !12
  %189 = sext i32 %188 to i64
  %190 = getelementptr inbounds [32 x i64], ptr %10, i64 0, i64 %189
  %191 = load i64, ptr %190, align 8, !tbaa !10
  %192 = add i64 %191, 1
  %193 = load ptr, ptr %5, align 8, !tbaa !24
  %194 = getelementptr inbounds nuw %struct.H5O_storage_virtual_t, ptr %193, i32 0, i32 4
  %195 = load i32, ptr %11, align 4, !tbaa !12
  %196 = sext i32 %195 to i64
  %197 = getelementptr inbounds [32 x i64], ptr %194, i64 0, i64 %196
  store i64 %192, ptr %197, align 8, !tbaa !10
  br label %198

198:                                              ; preds = %187, %175, %169
  br label %199

199:                                              ; preds = %198
  %200 = load i32, ptr %11, align 4, !tbaa !12
  %201 = add nsw i32 %200, 1
  store i32 %201, ptr %11, align 4, !tbaa !12
  br label %165, !llvm.loop !130

202:                                              ; preds = %165
  br label %203

203:                                              ; preds = %202, %159, %131, %107, %95, %53
  br label %204

204:                                              ; preds = %203, %66
  %205 = load i32, ptr %12, align 4, !tbaa !12
  call void @llvm.lifetime.end.p0(i64 1, ptr %13) #10
  call void @llvm.lifetime.end.p0(i64 4, ptr %12) #10
  call void @llvm.lifetime.end.p0(i64 4, ptr %11) #10
  call void @llvm.lifetime.end.p0(i64 256, ptr %10) #10
  call void @llvm.lifetime.end.p0(i64 256, ptr %9) #10
  call void @llvm.lifetime.end.p0(i64 4, ptr %8) #10
  call void @llvm.lifetime.end.p0(i64 4, ptr %7) #10
  call void @llvm.lifetime.end.p0(i64 8, ptr %6) #10
  call void @llvm.lifetime.end.p0(i64 8, ptr %5) #10
  ret i32 %205
}