; Function Attrs: nounwind uwtable
define range(i32 -1, 1) i32 @H5D_virtual_update_min_dims(ptr noundef captures(none) %0, i64 noundef %1) local_unnamed_addr #0 {
  %3 = alloca [32 x i64], align 16
  %4 = alloca [32 x i64], align 16
  %5 = getelementptr inbounds nuw i8, ptr %0, i64 1944
  %6 = load ptr, ptr %5, align 8, !tbaa !27
  %7 = getelementptr inbounds nuw %struct.H5O_storage_virtual_ent_t, ptr %6, i64 %1
  call void @llvm.lifetime.start.p0(i64 256, ptr nonnull %3) #14
  call void @llvm.lifetime.start.p0(i64 256, ptr nonnull %4) #14
  %8 = load i8, ptr @H5D_init_g, align 1, !tbaa !3, !range !7, !noundef !8
  %9 = trunc nuw i8 %8 to i1
  %10 = load i8, ptr @H5_libterm_g, align 1, !range !7
  %11 = trunc nuw i8 %10 to i1
  %12 = select i1 %9, i1 true, i1 %11
  br i1 %12, label %20, label %13, !prof !9

13:                                               ; preds = %2
  store i8 1, ptr @H5D_init_g, align 1, !tbaa !3
  %14 = tail call i32 @H5D__init_package() #14
  %15 = icmp slt i32 %14, 0
  br i1 %15, label %16, label %._crit_edge

._crit_edge:                                      ; preds = %13
  %.pre = load i8, ptr @H5D_init_g, align 1, !tbaa !3, !range !7
  %.pre32 = load i8, ptr @H5_libterm_g, align 1, !range !7
  %.pre33 = trunc nuw i8 %.pre to i1
  %.pre34 = trunc nuw i8 %.pre32 to i1
  br label %20

16:                                               ; preds = %13
  store i8 0, ptr @H5D_init_g, align 1, !tbaa !3
  %17 = load i64, ptr @H5E_FUNC_g, align 8, !tbaa !24
  %18 = load i64, ptr @H5E_CANTINIT_g, align 8, !tbaa !24
  %19 = tail call i32 (ptr, ptr, i32, i64, i64, ptr, ...) @H5E_printf_stack(ptr noundef nonnull @.str.1, ptr noundef nonnull @__func__.H5D_virtual_update_min_dims, i32 noundef 309, i64 noundef %17, i64 noundef %18, ptr noundef nonnull @.str.2) #14
  br label %.loopexit

20:                                               ; preds = %._crit_edge, %2
  %.pre-phi35 = phi i1 [ %.pre34, %._crit_edge ], [ %11, %2 ]
  %.pre-phi = phi i1 [ %.pre33, %._crit_edge ], [ %9, %2 ]
  %21 = xor i1 %.pre-phi35, true
  %22 = select i1 %.pre-phi, i1 true, i1 %21
  br i1 %22, label %23, label %.loopexit, !prof !9

23:                                               ; preds = %20
  %24 = load ptr, ptr %7, align 8, !tbaa !28
  %25 = tail call i32 @H5S_get_select_type(ptr noundef %24) #14
  switch i32 %25, label %30 [
    i32 -1, label %26
    i32 3, label %.loopexit
    i32 0, label %.loopexit
  ]

26:                                               ; preds = %23
  %27 = load i64, ptr @H5E_DATASET_g, align 8, !tbaa !24
  %28 = load i64, ptr @H5E_CANTGET_g, align 8, !tbaa !24
  %29 = tail call i32 (ptr, ptr, i32, i64, i64, ptr, ...) @H5E_printf_stack(ptr noundef nonnull @.str.1, ptr noundef nonnull @__func__.H5D_virtual_update_min_dims, i32 noundef 317, i64 noundef %27, i64 noundef %28, ptr noundef nonnull @.str.14) #14
  br label %.loopexit

30:                                               ; preds = %23
  %31 = load ptr, ptr %7, align 8, !tbaa !28
  %32 = tail call i32 @H5S_get_simple_extent_ndims(ptr noundef %31) #14
  %33 = icmp slt i32 %32, 0
  br i1 %33, label %34, label %38

34:                                               ; preds = %30
  %35 = load i64, ptr @H5E_DATASET_g, align 8, !tbaa !24
  %36 = load i64, ptr @H5E_CANTGET_g, align 8, !tbaa !24
  %37 = tail call i32 (ptr, ptr, i32, i64, i64, ptr, ...) @H5E_printf_stack(ptr noundef nonnull @.str.1, ptr noundef nonnull @__func__.H5D_virtual_update_min_dims, i32 noundef 325, i64 noundef %35, i64 noundef %36, ptr noundef nonnull @.str.15) #14
  br label %.loopexit

38:                                               ; preds = %30
  %39 = load ptr, ptr %7, align 8, !tbaa !28
  %40 = call i32 @H5S_get_select_bounds(ptr noundef %39, ptr noundef nonnull %3, ptr noundef nonnull %4) #14
  %41 = icmp slt i32 %40, 0
  br i1 %41, label %46, label %.preheader

.preheader:                                       ; preds = %38
  %.not30 = icmp eq i32 %32, 0
  br i1 %.not30, label %.loopexit, label %.lr.ph

.lr.ph:                                           ; preds = %.preheader
  %42 = getelementptr inbounds nuw i8, ptr %7, i64 180
  %43 = load i32, ptr %42, align 4, !tbaa !115
  %44 = getelementptr inbounds nuw i8, ptr %0, i64 1960
  %45 = zext i32 %43 to i64
  %wide.trip.count = zext nneg i32 %32 to i64
  br label %50

46:                                               ; preds = %38
  %47 = load i64, ptr @H5E_DATASET_g, align 8, !tbaa !24
  %48 = load i64, ptr @H5E_CANTGET_g, align 8, !tbaa !24
  %49 = call i32 (ptr, ptr, i32, i64, i64, ptr, ...) @H5E_printf_stack(ptr noundef nonnull @.str.1, ptr noundef nonnull @__func__.H5D_virtual_update_min_dims, i32 noundef 329, i64 noundef %47, i64 noundef %48, ptr noundef nonnull @.str.16) #14
  br label %.loopexit

50:                                               ; preds = %.lr.ph, %58
  %indvars.iv = phi i64 [ 0, %.lr.ph ], [ %indvars.iv.next, %58 ]
  %.not = icmp eq i64 %indvars.iv, %45
  br i1 %.not, label %58, label %51

51:                                               ; preds = %50
  %52 = getelementptr inbounds nuw [32 x i64], ptr %4, i64 0, i64 %indvars.iv
  %53 = load i64, ptr %52, align 8, !tbaa !24
  %54 = getelementptr inbounds nuw [32 x i64], ptr %44, i64 0, i64 %indvars.iv
  %55 = load i64, ptr %54, align 8, !tbaa !24
  %.not28 = icmp ult i64 %53, %55
  br i1 %.not28, label %58, label %56

56:                                               ; preds = %51
  %57 = add i64 %53, 1
  store i64 %57, ptr %54, align 8, !tbaa !24
  br label %58

58:                                               ; preds = %50, %51, %56
  %indvars.iv.next = add nuw nsw i64 %indvars.iv, 1
  %exitcond.not = icmp eq i64 %indvars.iv.next, %wide.trip.count
  br i1 %exitcond.not, label %.loopexit, label %50, !llvm.loop !116

.loopexit:                                        ; preds = %58, %.preheader, %23, %23, %16, %26, %34, %46, %20
  %.0 = phi i32 [ -1, %16 ], [ -1, %26 ], [ -1, %34 ], [ -1, %46 ], [ 0, %20 ], [ 0, %23 ], [ 0, %23 ], [ 0, %.preheader ], [ 0, %58 ]
  call void @llvm.lifetime.end.p0(i64 256, ptr nonnull %4) #14
  call void @llvm.lifetime.end.p0(i64 256, ptr nonnull %3) #14
  ret i32 %.0
}